target datalayout = "e-m:e-p270:32:32-p271:32:32-p272:64:64-i64:64-i128:128-f80:128-n8:16:32:64-S128"
target triple = "x86_64-pc-linux-gnu"

%struct._object = type { %union.anon, ptr }
%union.anon = type { i64 }
%struct._typeobject = type { %struct.PyVarObject, ptr, i64, i64, ptr, i64, ptr, ptr, ptr, ptr, ptr, ptr, ptr, ptr, ptr, ptr, ptr, ptr, ptr, i64, ptr, ptr, ptr, ptr, i64, ptr, ptr, ptr, ptr, ptr, ptr, ptr, ptr, ptr, i64, ptr, ptr, ptr, ptr, ptr, ptr, ptr, ptr, ptr, ptr, ptr, i32, ptr, ptr, i8, i16 }
%struct.PyVarObject = type { %struct._object, i64 }

; Function Attrs: inlinehint nounwind uwtable
define internal ptr @_Py_TYPE(ptr noundef %0) #4 {
  %2 = alloca ptr, align 8
  store ptr %0, ptr %2, align 8, !tbaa !3
  %3 = load ptr, ptr %2, align 8, !tbaa !3
  %4 = getelementptr inbounds nuw %struct._object, ptr %3, i32 0, i32 1
  %5 = load ptr, ptr %4, align 8, !tbaa !37
  ret ptr %5
}

; Function Attrs: nounwind uwtable
define internal ptr @obj_extra_data_get_extra_storage(ptr noundef %0) #0 {
  %2 = alloca ptr, align 8
  store ptr %0, ptr %2, align 8, !tbaa !3
  %3 = load ptr, ptr %2, align 8, !tbaa !3
  %4 = load ptr, ptr %2, align 8, !tbaa !3
  %5 = call ptr @_Py_TYPE(ptr noundef %4)
  %6 = getelementptr inbounds nuw %struct._typeobject, ptr %5, i32 0, i32 2
  %7 = load i64, ptr %6, align 8, !tbaa !40
  %8 = getelementptr i8, ptr %3, i64 %7
  ret ptr %8
}

; Function Attrs: nounwind uwtable
define internal i32 @obj_extra_data_traverse(ptr noundef %0, ptr noundef %1, ptr noundef %2) #0 {
  %4 = alloca i32, align 4
  %5 = alloca ptr, align 8
  %6 = alloca ptr, align 8
  %7 = alloca ptr, align 8
  %8 = alloca ptr, align 8
  %9 = alloca ptr, align 8
  %10 = alloca i32, align 4
  %11 = alloca i32, align 4
  store ptr %0, ptr %5, align 8, !tbaa !3
  store ptr %1, ptr %6, align 8, !tbaa !31
  store ptr %2, ptr %7, align 8, !tbaa !31
  call void @llvm.lifetime.start.p0(i64 8, ptr %8) #6
  %12 = load ptr, ptr %5, align 8, !tbaa !3
  %13 = call ptr @obj_extra_data_get_extra_storage(ptr noundef %12)
  store ptr %13, ptr %8, align 8, !tbaa !38
  call void @llvm.lifetime.start.p0(i64 8, ptr %9) #6
  %14 = load ptr, ptr %8, align 8, !tbaa !38
  %15 = load ptr, ptr %14, align 8, !tbaa !3
  store ptr %15, ptr %9, align 8, !tbaa !3
  br label %16

16:                                               ; preds = %3
  %17 = load ptr, ptr %9, align 8, !tbaa !3
  %18 = icmp ne ptr %17, null
  br i1 %18, label %19, label %32

19:                                               ; preds = %16
  call void @llvm.lifetime.start.p0(i64 4, ptr %10) #6
  %20 = load ptr, ptr %6, align 8, !tbaa !31
  %21 = load ptr, ptr %9, align 8, !tbaa !3
  %22 = load ptr, ptr %7, align 8, !tbaa !31
  %23 = call i32 %20(ptr noundef %21, ptr noundef %22)
  store i32 %23, ptr %10, align 4, !tbaa !8
  %24 = load i32, ptr %10, align 4, !tbaa !8
  %25 = icmp ne i32 %24, 0
  br i1 %25, label %26, label %28

26:                                               ; preds = %19
  %27 = load i32, ptr %10, align 4, !tbaa !8
  store i32 %27, ptr %4, align 4
  store i32 1, ptr %11, align 4
  br label %29

28:                                               ; preds = %19
  store i32 0, ptr %11, align 4
  br label %29

29:                                               ; preds = %28, %26
  call void @llvm.lifetime.end.p0(i64 4, ptr %10) #6
  %30 = load i32, ptr %11, align 4
  switch i32 %30, label %35 [
    i32 0, label %31
  ]

31:                                               ; preds = %29
  br label %32

32:                                               ; preds = %31, %16
  br label %33

33:                                               ; preds = %32
  br label %34

34:                                               ; preds = %33
  store i32 0, ptr %4, align 4
  store i32 1, ptr %11, align 4
  br label %35

35:                                               ; preds = %34, %29
  call void @llvm.lifetime.end.p0(i64 8, ptr %9) #6
  call void @llvm.lifetime.end.p0(i64 8, ptr %8) #6
  %36 = load i32, ptr %4, align 4
  ret i32 %36
}