; Function Attrs: nounwind uwtable
define internal i32 @obj_extra_data_traverse(ptr noundef readonly captures(none) %0, ptr noundef readonly captures(none) %1, ptr noundef %2) #0 {
  %4 = getelementptr i8, ptr %0, i64 8
  %.val.i = load ptr, ptr %4, align 8, !tbaa !14
  %5 = getelementptr inbounds nuw i8, ptr %.val.i, i64 32
  %6 = load i64, ptr %5, align 8, !tbaa !28
  %7 = getelementptr i8, ptr %0, i64 %6
  %8 = load ptr, ptr %7, align 8, !tbaa !6
  %.not = icmp eq ptr %8, null
  br i1 %.not, label %11, label %9

9:                                                ; preds = %3
  %10 = tail call i32 %1(ptr noundef nonnull %8, ptr noundef %2) #8
  %.not11 = icmp eq i32 %10, 0
  br i1 %.not11, label %11, label %12

11:                                               ; preds = %9, %3
  br label %12

12:                                               ; preds = %9, %11
  %.1 = phi i32 [ 0, %11 ], [ %10, %9 ]
  ret i32 %.1
}